; Function Attrs: nounwind uwtable
define internal fastcc i32 @setup_connection_internals(ptr noundef %0, ptr noundef nonnull %1) unnamed_addr #0 {
  %3 = getelementptr inbounds nuw i8, ptr %1, i64 928
  %4 = load ptr, ptr %3, align 8, !tbaa !203
  %5 = getelementptr inbounds nuw i8, ptr %4, i64 8
  %6 = load ptr, ptr %5, align 8, !tbaa !281
  %.not = icmp eq ptr %6, null
  br i1 %.not, label %11, label %7

7:                                                ; preds = %2
  %8 = tail call i32 %6(ptr noundef %0, ptr noundef nonnull %1) #12
  %.not35 = icmp eq i32 %8, 0
  br i1 %.not35, label %9, label %37

9:                                                ; preds = %7
  %10 = load ptr, ptr %3, align 8, !tbaa !203
  br label %11

11:                                               ; preds = %9, %2
  %.031 = phi ptr [ %10, %9 ], [ %4, %2 ]
  %12 = getelementptr inbounds nuw i8, ptr %1, i64 372
  %13 = load i32, ptr %12, align 4, !tbaa !216
  %14 = icmp slt i32 %13, 0
  br i1 %14, label %15, label %18

15:                                               ; preds = %11
  %16 = getelementptr inbounds nuw i8, ptr %.031, i64 136
  %17 = load i32, ptr %16, align 8, !tbaa !282
  store i32 %17, ptr %12, align 4, !tbaa !216
  br label %18

18:                                               ; preds = %15, %11
  %19 = phi i32 [ %17, %15 ], [ %13, %11 ]
  %20 = getelementptr inbounds nuw i8, ptr %1, i64 920
  %21 = load i64, ptr %20, align 8
  %22 = and i64 %21, 9
  %or.cond = icmp eq i64 %22, 1
  br i1 %or.cond, label %27, label %23

23:                                               ; preds = %18
  %24 = getelementptr inbounds nuw i8, ptr %1, i64 1352
  %25 = load i32, ptr %24, align 8, !tbaa !228
  %26 = and i64 %21, 256
  %.not38 = icmp eq i64 %26, 0
  %. = select i1 %.not38, i64 104, i64 152
  br label %27

27:                                               ; preds = %23, %18
  %.sink = phi i64 [ 240, %18 ], [ %., %23 ]
  %.029 = phi i32 [ %19, %18 ], [ %25, %23 ]
  %28 = getelementptr inbounds nuw i8, ptr %1, i64 %.sink
  %.030 = load ptr, ptr %28, align 8, !tbaa !8
  %29 = getelementptr inbounds nuw i8, ptr %1, i64 1360
  %30 = load i32, ptr %29, align 8, !tbaa !256
  %31 = tail call ptr (ptr, ...) @curl_maprintf(ptr noundef nonnull @.str.66, i32 noundef %30, i32 noundef %.029, ptr noundef %.030) #12
  %32 = getelementptr inbounds nuw i8, ptr %1, i64 56
  store ptr %31, ptr %32, align 8, !tbaa !195
  %.not39 = icmp eq ptr %31, null
  br i1 %.not39, label %37, label %33

33:                                               ; preds = %27
  %34 = tail call i64 @strlen(ptr noundef nonnull dereferenceable(1) %31) #13
  %35 = add i64 %34, 1
  %36 = getelementptr inbounds nuw i8, ptr %1, i64 64
  store i64 %35, ptr %36, align 8, !tbaa !283
  tail call void @Curl_strntolower(ptr noundef nonnull %31, ptr noundef nonnull %31, i64 noundef %34) #12
  br label %37

37:                                               ; preds = %27, %7, %33
  %.0 = phi i32 [ 0, %33 ], [ %8, %7 ], [ 27, %27 ]
  ret i32 %.0
}